; Function Attrs: nofree norecurse nosync nounwind memory(read, argmem: readwrite, inaccessiblemem: none) uwtable
define internal void @yuv2ayuv_2_c(ptr readnone captures(none) %0, ptr noundef readonly captures(none) %1, ptr noundef readonly captures(none) %2, ptr noundef readonly captures(none) %3, ptr noundef readonly captures(address_is_null) %4, ptr noundef writeonly captures(none) %5, i32 noundef %6, i32 noundef %7, i32 noundef %8, i32 %9) #3 {
  %.not.i = icmp eq ptr %4, null
  br i1 %.not.i, label %.thread, label %11

11:                                               ; preds = %10
  %12 = load ptr, ptr %4, align 8, !tbaa !43
  %.not93.i = icmp eq ptr %12, null
  br i1 %.not93.i, label %.thread, label %22

.thread:                                          ; preds = %11, %10
  %13 = load ptr, ptr %1, align 8, !tbaa !43
  %14 = getelementptr inbounds nuw i8, ptr %1, i64 8
  %15 = load ptr, ptr %14, align 8, !tbaa !43
  %16 = load ptr, ptr %2, align 8, !tbaa !43
  %17 = getelementptr inbounds nuw i8, ptr %2, i64 8
  %18 = load ptr, ptr %17, align 8, !tbaa !43
  %19 = load ptr, ptr %3, align 8, !tbaa !43
  %20 = getelementptr inbounds nuw i8, ptr %3, i64 8
  %21 = load ptr, ptr %20, align 8, !tbaa !43
  br label %.thread16

22:                                               ; preds = %11
  %23 = getelementptr inbounds nuw i8, ptr %4, i64 8
  %24 = load ptr, ptr %23, align 8, !tbaa !43
  %.not = icmp eq ptr %24, null
  %25 = load ptr, ptr %1, align 8, !tbaa !43
  %26 = getelementptr inbounds nuw i8, ptr %1, i64 8
  %27 = load ptr, ptr %26, align 8, !tbaa !43
  %28 = load ptr, ptr %2, align 8, !tbaa !43
  %29 = getelementptr inbounds nuw i8, ptr %2, i64 8
  %30 = load ptr, ptr %29, align 8, !tbaa !43
  %31 = load ptr, ptr %3, align 8, !tbaa !43
  %32 = getelementptr inbounds nuw i8, ptr %3, i64 8
  %33 = load ptr, ptr %32, align 8, !tbaa !43
  br i1 %.not, label %.thread16, label %34

34:                                               ; preds = %22
  br label %.thread16

.thread16:                                        ; preds = %.thread, %22, %34
  %35 = phi ptr [ %12, %34 ], [ null, %22 ], [ null, %.thread ]
  %36 = phi i1 [ true, %34 ], [ false, %22 ], [ false, %.thread ]
  %37 = phi ptr [ %25, %34 ], [ %25, %22 ], [ %13, %.thread ]
  %38 = phi ptr [ %27, %34 ], [ %27, %22 ], [ %15, %.thread ]
  %39 = phi ptr [ %28, %34 ], [ %28, %22 ], [ %16, %.thread ]
  %40 = phi ptr [ %30, %34 ], [ %30, %22 ], [ %18, %.thread ]
  %41 = phi ptr [ %31, %34 ], [ %31, %22 ], [ %19, %.thread ]
  %42 = phi ptr [ %33, %34 ], [ %33, %22 ], [ %21, %.thread ]
  %43 = phi ptr [ %24, %34 ], [ null, %22 ], [ null, %.thread ]
  %44 = sub nsw i32 4096, %7
  %45 = sub nsw i32 4096, %8
  %46 = icmp sgt i32 %6, 0
  br i1 %46, label %.lr.ph.preheader, label %yuv2ayuv_2_c_template.exit

.lr.ph.preheader:                                 ; preds = %.thread16
  %wide.trip.count = zext nneg i32 %6 to i64
  br label %.lr.ph

.lr.ph:                                           ; preds = %.lr.ph.preheader, %99
  %indvars.iv = phi i64 [ 0, %.lr.ph.preheader ], [ %indvars.iv.next, %99 ]
  %47 = getelementptr inbounds nuw i16, ptr %37, i64 %indvars.iv
  %48 = load i16, ptr %47, align 2, !tbaa !39
  %49 = sext i16 %48 to i32
  %50 = mul nsw i32 %44, %49
  %51 = getelementptr inbounds nuw i16, ptr %38, i64 %indvars.iv
  %52 = load i16, ptr %51, align 2, !tbaa !39
  %53 = sext i16 %52 to i32
  %54 = mul nsw i32 %7, %53
  %55 = add nsw i32 %54, %50
  %56 = ashr i32 %55, 19
  %57 = getelementptr inbounds nuw i16, ptr %39, i64 %indvars.iv
  %58 = load i16, ptr %57, align 2, !tbaa !39
  %59 = sext i16 %58 to i32
  %60 = mul nsw i32 %45, %59
  %61 = getelementptr inbounds nuw i16, ptr %40, i64 %indvars.iv
  %62 = load i16, ptr %61, align 2, !tbaa !39
  %63 = sext i16 %62 to i32
  %64 = mul nsw i32 %8, %63
  %65 = add nsw i32 %64, %60
  %66 = ashr i32 %65, 19
  %67 = getelementptr inbounds nuw i16, ptr %41, i64 %indvars.iv
  %68 = load i16, ptr %67, align 2, !tbaa !39
  %69 = sext i16 %68 to i32
  %70 = mul nsw i32 %45, %69
  %71 = getelementptr inbounds nuw i16, ptr %42, i64 %indvars.iv
  %72 = load i16, ptr %71, align 2, !tbaa !39
  %73 = sext i16 %72 to i32
  %74 = mul nsw i32 %8, %73
  %75 = add nsw i32 %74, %70
  %76 = ashr i32 %75, 19
  %77 = and i32 %55, 134217728
  %.not94.i = icmp eq i32 %77, 0
  %.not.i103.i = icmp ult i32 %56, 256
  %isnotneg.i104.i = icmp sgt i32 %56, -1
  %78 = sext i1 %isnotneg.i104.i to i32
  %79 = or i1 %.not94.i, %.not.i103.i
  %.089.i = select i1 %79, i32 %56, i32 %78
  %80 = and i32 %65, 134217728
  %.not95.i = icmp eq i32 %80, 0
  %.not.i100.i = icmp ult i32 %66, 256
  %isnotneg.i101.i = icmp sgt i32 %66, -1
  %81 = sext i1 %isnotneg.i101.i to i32
  %82 = or i1 %.not95.i, %.not.i100.i
  %.088.i = select i1 %82, i32 %66, i32 %81
  %83 = and i32 %75, 134217728
  %.not96.i = icmp eq i32 %83, 0
  %.not.i97.i = icmp ult i32 %76, 256
  %isnotneg.i98.i = icmp sgt i32 %76, -1
  %84 = sext i1 %isnotneg.i98.i to i32
  %85 = or i1 %.not96.i, %.not.i97.i
  %.087.i = select i1 %85, i32 %76, i32 %84
  br i1 %36, label %86, label %99

86:                                               ; preds = %.lr.ph
  %87 = getelementptr inbounds nuw i16, ptr %35, i64 %indvars.iv
  %88 = load i16, ptr %87, align 2, !tbaa !39
  %89 = sext i16 %88 to i32
  %90 = mul nsw i32 %44, %89
  %91 = getelementptr inbounds nuw i16, ptr %43, i64 %indvars.iv
  %92 = load i16, ptr %91, align 2, !tbaa !39
  %93 = sext i16 %92 to i32
  %94 = mul nsw i32 %7, %93
  %95 = add nsw i32 %94, %90
  %96 = ashr i32 %95, 19
  %.not.i.i = icmp ult i32 %96, 256
  %isnotneg.i.i = icmp sgt i32 %96, -1
  %97 = sext i1 %isnotneg.i.i to i8
  %98 = trunc nuw i32 %96 to i8
  %.0.i.i = select i1 %.not.i.i, i8 %98, i8 %97
  br label %99

99:                                               ; preds = %86, %.lr.ph
  %.0.i = phi i8 [ %.0.i.i, %86 ], [ -1, %.lr.ph ]
  %100 = shl nsw i64 %indvars.iv, 2
  %101 = getelementptr inbounds nuw i8, ptr %5, i64 %100
  store i8 %.0.i, ptr %101, align 1, !tbaa !41
  %102 = trunc i32 %.089.i to i8
  %103 = getelementptr inbounds nuw i8, ptr %101, i64 1
  store i8 %102, ptr %103, align 1, !tbaa !41
  %104 = trunc i32 %.088.i to i8
  %105 = getelementptr inbounds nuw i8, ptr %101, i64 2
  store i8 %104, ptr %105, align 1, !tbaa !41
  %106 = trunc i32 %.087.i to i8
  %107 = getelementptr inbounds nuw i8, ptr %101, i64 3
  store i8 %106, ptr %107, align 1, !tbaa !41
  %indvars.iv.next = add nuw nsw i64 %indvars.iv, 1
  %exitcond.not = icmp eq i64 %indvars.iv.next, %wide.trip.count
  br i1 %exitcond.not, label %yuv2ayuv_2_c_template.exit, label %.lr.ph, !llvm.loop !164

yuv2ayuv_2_c_template.exit:                       ; preds = %99, %.thread16
  ret void
}